; Function Attrs: mustprogress uwtable
define dso_local void @_ZN6V3Inst16checkOutputShortEP6AstPin(ptr noundef %0) #3 align 2 {
  %2 = getelementptr inbounds nuw i8, ptr %0, i64 200
  %3 = load ptr, ptr %2, align 8, !tbaa !4
  %4 = getelementptr inbounds nuw i8, ptr %3, i64 249
  %.sroa.0.0.copyload.i = load i8, ptr %4, align 1, !tbaa !28
  %5 = icmp eq i8 %.sroa.0.0.copyload.i, 2
  br i1 %5, label %6, label %_ZN7AstNode9privateIsI9AstConcatPS_EEbPKS_.exit.thread

6:                                                ; preds = %1
  %7 = getelementptr inbounds nuw i8, ptr %0, i64 24
  %8 = load ptr, ptr %7, align 8, !tbaa !27
  %.not.i = icmp eq ptr %8, null
  br i1 %.not.i, label %_ZN7AstNode9privateIsI9AstConcatPS_EEbPKS_.exit.thread, label %_ZN7AstNode9privateIsI8AstConstPS_EEbPKS_.exit

_ZN7AstNode9privateIsI8AstConstPS_EEbPKS_.exit:   ; preds = %6
  %9 = getelementptr inbounds nuw i8, ptr %8, i64 64
  %.sroa.0.0.copyload.i.i.i = load i16, ptr %9, align 8, !tbaa !36
  switch i16 %.sroa.0.0.copyload.i.i.i, label %_ZN7AstNode9privateIsI9AstConcatPS_EEbPKS_.exit.thread [
    i16 97, label %14
    i16 273, label %14
    i16 158, label %_ZN7AstNode9privateAsI9AstConcatPS_EEPT_S2_.exit
  ]

_ZN7AstNode9privateAsI9AstConcatPS_EEPT_S2_.exit: ; preds = %_ZN7AstNode9privateIsI8AstConstPS_EEbPKS_.exit
  %10 = getelementptr inbounds nuw i8, ptr %8, i64 24
  %11 = load ptr, ptr %10, align 8, !tbaa !27
  %.not.i12 = icmp eq ptr %11, null
  br i1 %.not.i12, label %_ZN7AstNode9privateIsI9AstConcatPS_EEbPKS_.exit.thread, label %_ZN7AstNode9privateIsI8AstConstP11AstNodeExprEEbPKS_.exit

_ZN7AstNode9privateIsI8AstConstP11AstNodeExprEEbPKS_.exit: ; preds = %_ZN7AstNode9privateAsI9AstConcatPS_EEPT_S2_.exit
  %12 = getelementptr inbounds nuw i8, ptr %11, i64 64
  %.sroa.0.0.copyload.i.i.i13 = load i16, ptr %12, align 8, !tbaa !36
  %13 = icmp eq i16 %.sroa.0.0.copyload.i.i.i13, 97
  br i1 %13, label %14, label %_ZN7AstNode9privateIsI9AstConcatPS_EEbPKS_.exit.thread

14:                                               ; preds = %_ZN7AstNode9privateIsI8AstConstPS_EEbPKS_.exit, %_ZN7AstNode9privateIsI8AstConstPS_EEbPKS_.exit, %_ZN7AstNode9privateIsI8AstConstP11AstNodeExprEEbPKS_.exit
  %15 = tail call noundef nonnull align 8 dereferenceable(112) ptr @_ZN7V3Error11v3errorPrepB5cxx11E11V3ErrorCode(i8 17)
  %16 = tail call noundef nonnull align 8 dereferenceable(112) ptr @_ZN7V3Error10v3errorStrB5cxx11Ev()
  %17 = tail call noundef nonnull align 8 dereferenceable(8) ptr @_ZSt16__ostream_insertIcSt11char_traitsIcEERSt13basic_ostreamIT_T0_ES6_PKS3_l(ptr noundef nonnull align 8 dereferenceable(8) %16, ptr noundef nonnull @.str, i64 noundef 60)
  tail call void @_ZNK7AstNode10v3errorEndERNSt7__cxx1119basic_ostringstreamIcSt11char_traitsIcESaIcEEE(ptr noundef nonnull align 8 dereferenceable(152) %0, ptr noundef nonnull align 8 dereferenceable(112) %16)
  br label %_ZN7AstNode9privateIsI9AstConcatPS_EEbPKS_.exit.thread

_ZN7AstNode9privateIsI9AstConcatPS_EEbPKS_.exit.thread: ; preds = %_ZN7AstNode9privateIsI8AstConstPS_EEbPKS_.exit, %_ZN7AstNode9privateAsI9AstConcatPS_EEPT_S2_.exit, %6, %_ZN7AstNode9privateIsI8AstConstP11AstNodeExprEEbPKS_.exit, %14, %1
  ret void
}